ccopy_reg
_reconstructor
p0
(csklearn.linear_model.base
LinearRegression
p1
c__builtin__
object
p2
Ntp3
Rp4
(dp5
S'normalize'
p6
I00
sS'n_jobs'
p7
I1
sS'rank_'
p8
I4
sS'fit_intercept'
p9
I01
sS'_residues'
p10
cnumpy.core.multiarray
scalar
p11
(cnumpy
dtype
p12
(S'f8'
p13
I0
I1
tp14
Rp15
(I3
S'<'
p16
NNNI-1
I-1
I0
tp17
bS'\xa9R\x8a\xe8\xdc\x99EA'
p18
tp19
Rp20
sS'singular_'
p21
cnumpy.core.multiarray
_reconstruct
p22
(cnumpy
ndarray
p23
(I0
tp24
S'b'
p25
tp26
Rp27
(I1
(I4
tp28
g15
I00
S'\x93\x9a\xc0\x97\xff7Q@d\xe7\xda>\xb5\xdbH@\xfa\xa0\xc0\xca\x047D@\x95\xda\xc6\x8cH\x02=@'
p29
tp30
bsS'coef_'
p31
g22
(g23
(I0
tp32
g25
tp33
Rp34
(I1
(I4
tp35
g15
I00
S'(\x9c\xf8\xb6\x17\x96g@\xa0\x16-\x00\x15\x99\xf5\xbf\x00n?\xba\xbd\x9f\xcb?\x80\x00\xde\xb7\xbf\x0c\x0f\xc0'
p36
tp37
bsS'_sklearn_version'
p38
S'0.18.1'
p39
sS'copy_X'
p40
I01
sS'intercept_'
p41
g11
(g15
S'\xc6J?\xe9\x04uv@'
p42
tp43
Rp44
sb.